; Function Attrs: nounwind uwtable
define dso_local noundef ptr @lappend_int(ptr noundef %0, i32 noundef %1) local_unnamed_addr #0 {
  %3 = icmp eq ptr %0, null
  br i1 %3, label %4, label %10

4:                                                ; preds = %2
  %5 = tail call ptr @palloc(i64 noundef 64) #9
  store i32 470, ptr %5, align 8
  %6 = getelementptr inbounds nuw i8, ptr %5, i64 4
  store i32 1, ptr %6, align 4
  %7 = getelementptr inbounds nuw i8, ptr %5, i64 8
  store i32 5, ptr %7, align 8
  %8 = getelementptr inbounds nuw i8, ptr %5, i64 24
  %9 = getelementptr inbounds nuw i8, ptr %5, i64 16
  store ptr %8, ptr %9, align 8
  br label %42

10:                                               ; preds = %2
  %11 = getelementptr inbounds nuw i8, ptr %0, i64 4
  %12 = load i32, ptr %11, align 4
  %13 = getelementptr inbounds nuw i8, ptr %0, i64 8
  %14 = load i32, ptr %13, align 8
  %.not.i = icmp slt i32 %12, %14
  br i1 %.not.i, label %new_tail_cell.exit, label %15

15:                                               ; preds = %10
  %16 = add i32 %12, 1
  %17 = tail call i32 @llvm.smax.i32(i32 %16, i32 16)
  %18 = tail call range(i32 1, 32) i32 @llvm.ctpop.i32(i32 %17)
  %19 = icmp samesign ult i32 %18, 2
  %20 = tail call range(i32 0, 33) i32 @llvm.ctlz.i32(i32 %17, i1 true)
  %21 = xor i32 %20, 31
  %22 = shl nuw i32 2, %21
  %.0.i.i.i = select i1 %19, i32 %17, i32 %22
  %23 = getelementptr inbounds nuw i8, ptr %0, i64 16
  %24 = load ptr, ptr %23, align 8
  %25 = getelementptr inbounds nuw i8, ptr %0, i64 24
  %26 = icmp eq ptr %24, %25
  br i1 %26, label %27, label %35

27:                                               ; preds = %15
  %28 = tail call ptr @GetMemoryChunkContext(ptr noundef nonnull %0) #9
  %29 = sext i32 %.0.i.i.i to i64
  %30 = shl nsw i64 %29, 3
  %31 = tail call ptr @MemoryContextAlloc(ptr noundef %28, i64 noundef %30) #9
  store ptr %31, ptr %23, align 8
  %32 = load i32, ptr %11, align 4
  %33 = sext i32 %32 to i64
  %34 = shl nsw i64 %33, 3
  tail call void @llvm.memcpy.p0.p0.i64(ptr align 8 %31, ptr nonnull align 8 %25, i64 %34, i1 false)
  br label %enlarge_list.exit.i

35:                                               ; preds = %15
  %36 = sext i32 %.0.i.i.i to i64
  %37 = shl nsw i64 %36, 3
  %38 = tail call ptr @repalloc(ptr noundef %24, i64 noundef %37) #9
  store ptr %38, ptr %23, align 8
  br label %enlarge_list.exit.i

enlarge_list.exit.i:                              ; preds = %35, %27
  store i32 %.0.i.i.i, ptr %13, align 8
  %.pre.i = load i32, ptr %11, align 4
  br label %new_tail_cell.exit

new_tail_cell.exit:                               ; preds = %10, %enlarge_list.exit.i
  %39 = phi i32 [ %.pre.i, %enlarge_list.exit.i ], [ %12, %10 ]
  %40 = add i32 %39, 1
  store i32 %40, ptr %11, align 4
  %.phi.trans.insert = getelementptr i8, ptr %0, i64 16
  %.0.val5.pre = load ptr, ptr %.phi.trans.insert, align 8
  %41 = sext i32 %39 to i64
  br label %42

42:                                               ; preds = %new_tail_cell.exit, %4
  %.0.val5 = phi ptr [ %8, %4 ], [ %.0.val5.pre, %new_tail_cell.exit ]
  %.0.val = phi i64 [ 0, %4 ], [ %41, %new_tail_cell.exit ]
  %.0 = phi ptr [ %5, %4 ], [ %0, %new_tail_cell.exit ]
  %43 = getelementptr inbounds %union.ListCell, ptr %.0.val5, i64 %.0.val
  store i32 %1, ptr %43, align 8
  ret ptr %.0
}